target datalayout = "e-m:e-p270:32:32-p271:32:32-p272:64:64-i64:64-i128:128-f80:128-n8:16:32:64-S128"
target triple = "x86_64-pc-linux-gnu"

%struct.pair_encodemap = type { i32, i16 }

; Function Attrs: nounwind uwtable
define internal zeroext i16 @find_pairencmap(i16 noundef zeroext %0, i16 noundef zeroext %1, ptr noundef %2, i32 noundef %3) #0 {
  %5 = alloca i16, align 2
  %6 = alloca i16, align 2
  %7 = alloca i16, align 2
  %8 = alloca ptr, align 8
  %9 = alloca i32, align 4
  %10 = alloca i32, align 4
  %11 = alloca i32, align 4
  %12 = alloca i32, align 4
  %13 = alloca i32, align 4
  %14 = alloca i32, align 4
  store i16 %0, ptr %6, align 2, !tbaa !70
  store i16 %1, ptr %7, align 2, !tbaa !70
  store ptr %2, ptr %8, align 8, !tbaa !101
  store i32 %3, ptr %9, align 4, !tbaa !19
  call void @llvm.lifetime.start.p0(i64 4, ptr %10) #9
  call void @llvm.lifetime.start.p0(i64 4, ptr %11) #9
  call void @llvm.lifetime.start.p0(i64 4, ptr %12) #9
  call void @llvm.lifetime.start.p0(i64 4, ptr %13) #9
  %15 = load i16, ptr %6, align 2, !tbaa !70
  %16 = zext i16 %15 to i32
  %17 = shl i32 %16, 16
  %18 = load i16, ptr %7, align 2, !tbaa !70
  %19 = zext i16 %18 to i32
  %20 = or i32 %17, %19
  store i32 %20, ptr %13, align 4, !tbaa !19
  store i32 0, ptr %11, align 4, !tbaa !19
  %21 = load i32, ptr %9, align 4, !tbaa !19
  store i32 %21, ptr %12, align 4, !tbaa !19
  %22 = load i32, ptr %9, align 4, !tbaa !19
  %23 = ashr i32 %22, 1
  store i32 %23, ptr %10, align 4, !tbaa !19
  br label %24

24:                                               ; preds = %62, %4
  %25 = load i32, ptr %11, align 4, !tbaa !19
  %26 = load i32, ptr %12, align 4, !tbaa !19
  %27 = icmp ne i32 %25, %26
  br i1 %27, label %28, label %67

28:                                               ; preds = %24
  %29 = load i32, ptr %13, align 4, !tbaa !19
  %30 = load ptr, ptr %8, align 8, !tbaa !101
  %31 = load i32, ptr %10, align 4, !tbaa !19
  %32 = sext i32 %31 to i64
  %33 = getelementptr %struct.pair_encodemap, ptr %30, i64 %32
  %34 = getelementptr inbounds nuw %struct.pair_encodemap, ptr %33, i32 0, i32 0
  %35 = load i32, ptr %34, align 4, !tbaa !103
  %36 = icmp ult i32 %29, %35
  br i1 %36, label %37, label %44

37:                                               ; preds = %28
  %38 = load i32, ptr %12, align 4, !tbaa !19
  %39 = load i32, ptr %10, align 4, !tbaa !19
  %40 = icmp ne i32 %38, %39
  br i1 %40, label %41, label %43

41:                                               ; preds = %37
  %42 = load i32, ptr %10, align 4, !tbaa !19
  store i32 %42, ptr %12, align 4, !tbaa !19
  br label %62

43:                                               ; preds = %37
  br label %61

44:                                               ; preds = %28
  %45 = load i32, ptr %13, align 4, !tbaa !19
  %46 = load ptr, ptr %8, align 8, !tbaa !101
  %47 = load i32, ptr %10, align 4, !tbaa !19
  %48 = sext i32 %47 to i64
  %49 = getelementptr %struct.pair_encodemap, ptr %46, i64 %48
  %50 = getelementptr inbounds nuw %struct.pair_encodemap, ptr %49, i32 0, i32 0
  %51 = load i32, ptr %50, align 4, !tbaa !103
  %52 = icmp ugt i32 %45, %51
  br i1 %52, label %53, label %60

53:                                               ; preds = %44
  %54 = load i32, ptr %11, align 4, !tbaa !19
  %55 = load i32, ptr %10, align 4, !tbaa !19
  %56 = icmp ne i32 %54, %55
  br i1 %56, label %57, label %59

57:                                               ; preds = %53
  %58 = load i32, ptr %10, align 4, !tbaa !19
  store i32 %58, ptr %11, align 4, !tbaa !19
  br label %62

59:                                               ; preds = %53
  br label %60

60:                                               ; preds = %59, %44
  br label %61

61:                                               ; preds = %60, %43
  br label %67

62:                                               ; preds = %57, %41
  %63 = load i32, ptr %11, align 4, !tbaa !19
  %64 = load i32, ptr %12, align 4, !tbaa !19
  %65 = add i32 %63, %64
  %66 = ashr i32 %65, 1
  store i32 %66, ptr %10, align 4, !tbaa !19
  br label %24, !llvm.loop !105

67:                                               ; preds = %61, %24
  %68 = load i32, ptr %13, align 4, !tbaa !19
  %69 = load ptr, ptr %8, align 8, !tbaa !101
  %70 = load i32, ptr %10, align 4, !tbaa !19
  %71 = sext i32 %70 to i64
  %72 = getelementptr %struct.pair_encodemap, ptr %69, i64 %71
  %73 = getelementptr inbounds nuw %struct.pair_encodemap, ptr %72, i32 0, i32 0
  %74 = load i32, ptr %73, align 4, !tbaa !103
  %75 = icmp eq i32 %68, %74
  br i1 %75, label %76, label %83

76:                                               ; preds = %67
  %77 = load ptr, ptr %8, align 8, !tbaa !101
  %78 = load i32, ptr %10, align 4, !tbaa !19
  %79 = sext i32 %78 to i64
  %80 = getelementptr %struct.pair_encodemap, ptr %77, i64 %79
  %81 = getelementptr inbounds nuw %struct.pair_encodemap, ptr %80, i32 0, i32 1
  %82 = load i16, ptr %81, align 4, !tbaa !106
  store i16 %82, ptr %5, align 2
  store i32 1, ptr %14, align 4
  br label %84

83:                                               ; preds = %67
  store i16 -3, ptr %5, align 2
  store i32 1, ptr %14, align 4
  br label %84

84:                                               ; preds = %83, %76
  call void @llvm.lifetime.end.p0(i64 4, ptr %13) #9
  call void @llvm.lifetime.end.p0(i64 4, ptr %12) #9
  call void @llvm.lifetime.end.p0(i64 4, ptr %11) #9
  call void @llvm.lifetime.end.p0(i64 4, ptr %10) #9
  %85 = load i16, ptr %5, align 2
  ret i16 %85
}