; Function Attrs: nofree norecurse nosync nounwind memory(none) uwtable
define internal fastcc zeroext i16 @find_pairencmap(i16 noundef zeroext %0, i16 noundef zeroext %1) unnamed_addr #7 {
  %3 = zext i16 %0 to i32
  %4 = shl nuw i32 %3, 16
  %5 = zext i16 %1 to i32
  %6 = or disjoint i32 %4, %5
  br label %7

7:                                                ; preds = %2, %15
  %.0253 = phi i32 [ 46, %2 ], [ %.1, %15 ]
  %.0262 = phi i32 [ 0, %2 ], [ %.127, %15 ]
  %.0281 = phi i32 [ 23, %2 ], [ %17, %15 ]
  %8 = sext i32 %.0281 to i64
  %9 = getelementptr %struct.pair_encodemap, ptr @jisx0213_pair_encmap, i64 %8
  %10 = load i32, ptr %9, align 8, !tbaa !81
  %11 = icmp ult i32 %6, %10
  br i1 %11, label %12, label %13

12:                                               ; preds = %7
  %.not32 = icmp eq i32 %.0253, %.0281
  br i1 %.not32, label %18, label %15

13:                                               ; preds = %7
  %14 = icmp ule i32 %6, %10
  %.not31 = icmp eq i32 %.0262, %.0281
  %or.cond = or i1 %14, %.not31
  br i1 %or.cond, label %18, label %15

15:                                               ; preds = %13, %12
  %.127 = phi i32 [ %.0262, %12 ], [ %.0281, %13 ]
  %.1 = phi i32 [ %.0281, %12 ], [ %.0253, %13 ]
  %16 = add i32 %.1, %.127
  %17 = ashr i32 %16, 1
  %.not = icmp eq i32 %.127, %.1
  br i1 %.not, label %18, label %7, !llvm.loop !83

18:                                               ; preds = %12, %13, %15
  %.028.lcssa = phi i32 [ %.0253, %12 ], [ %.0281, %13 ], [ %17, %15 ]
  %19 = sext i32 %.028.lcssa to i64
  %20 = getelementptr %struct.pair_encodemap, ptr @jisx0213_pair_encmap, i64 %19
  %21 = load i32, ptr %20, align 8, !tbaa !81
  %22 = icmp eq i32 %6, %21
  br i1 %22, label %23, label %26

23:                                               ; preds = %18
  %24 = getelementptr inbounds nuw i8, ptr %20, i64 4
  %25 = load i16, ptr %24, align 4, !tbaa !84
  br label %26

26:                                               ; preds = %18, %23
  %.0 = phi i16 [ %25, %23 ], [ -3, %18 ]
  ret i16 %.0
}